target datalayout = "e-m:e-p270:32:32-p271:32:32-p272:64:64-i64:64-i128:128-f80:128-n8:16:32:64-S128"
target triple = "x86_64-pc-linux-gnu"

%struct.ltp_session_id_t = type { i64, i64 }

; Function Attrs: nounwind uwtable
define internal i32 @ltp_session_id_equal(ptr noundef %0, ptr noundef %1) #0 {
  %3 = alloca ptr, align 8
  %4 = alloca ptr, align 8
  %5 = alloca ptr, align 8
  %6 = alloca ptr, align 8
  store ptr %0, ptr %3, align 8
  store ptr %1, ptr %4, align 8
  %7 = load ptr, ptr %3, align 8
  store ptr %7, ptr %5, align 8
  %8 = load ptr, ptr %4, align 8
  store ptr %8, ptr %6, align 8
  %9 = load ptr, ptr %5, align 8
  %10 = getelementptr inbounds %struct.ltp_session_id_t, ptr %9, i32 0, i32 0
  %11 = load i64, ptr %10, align 8
  %12 = load ptr, ptr %6, align 8
  %13 = getelementptr inbounds %struct.ltp_session_id_t, ptr %12, i32 0, i32 0
  %14 = load i64, ptr %13, align 8
  %15 = icmp eq i64 %11, %14
  br i1 %15, label %16, label %24

16:                                               ; preds = %2
  %17 = load ptr, ptr %5, align 8
  %18 = getelementptr inbounds %struct.ltp_session_id_t, ptr %17, i32 0, i32 1
  %19 = load i64, ptr %18, align 8
  %20 = load ptr, ptr %6, align 8
  %21 = getelementptr inbounds %struct.ltp_session_id_t, ptr %20, i32 0, i32 1
  %22 = load i64, ptr %21, align 8
  %23 = icmp eq i64 %19, %22
  br label %24

24:                                               ; preds = %16, %2
  %25 = phi i1 [ false, %2 ], [ %23, %16 ]
  %26 = zext i1 %25 to i32
  ret i32 %26
}